; ModuleID = '44/815.c'
source_filename = "44/815.c"
target datalayout = "e-m:e-p270:32:32-p271:32:32-p272:64:64-i64:64-f80:128-n8:16:32:64-S128"
target triple = "x86_64-pc-linux-gnu"

@.str = private unnamed_addr constant [3 x i8] c"%d\00", align 1
@.str.1 = private unnamed_addr constant [4 x i8] c"%d\0A\00", align 1

; Function Attrs: noinline nounwind uwtable
define dso_local i32 @reverse(i32 %0) #0 {
  %2 = alloca i32, align 4
  %3 = alloca i32, align 4
  %4 = alloca i32, align 4
  %5 = alloca [100 x i32], align 16
  %6 = alloca i32, align 4
  %7 = alloca i32, align 4
  store i32 %0, i32* %3, align 4
  store i32 0, i32* %4, align 4
  store i32 0, i32* %7, align 4
  %8 = load i32, i32* %3, align 4
  %9 = icmp eq i32 %8, 0
  br i1 %9, label %10, label %11

10:                                               ; preds = %1
  store i32 0, i32* %2, align 4
  br label %51

11:                                               ; preds = %1
  br label %12

12:                                               ; preds = %15, %11
  %13 = load i32, i32* %3, align 4
  %14 = icmp sgt i32 %13, 0
  br i1 %14, label %15, label %24

15:                                               ; preds = %12
  %16 = load i32, i32* %3, align 4
  %17 = srem i32 %16, 10
  %18 = load i32, i32* %4, align 4
  %19 = add nsw i32 %18, 1
  store i32 %19, i32* %4, align 4
  %20 = sext i32 %18 to i64
  %21 = getelementptr inbounds [100 x i32], [100 x i32]* %5, i64 0, i64 %20
  store i32 %17, i32* %21, align 4
  %22 = load i32, i32* %3, align 4
  %23 = sdiv i32 %22, 10
  store i32 %23, i32* %3, align 4
  br label %12

24:                                               ; preds = %12
  store i32 0, i32* %6, align 4
  br label %25

25:                                               ; preds = %46, %24
  %26 = load i32, i32* %6, align 4
  %27 = load i32, i32* %4, align 4
  %28 = icmp slt i32 %26, %27
  br i1 %28, label %29, label %49

29:                                               ; preds = %25
  %30 = load i32, i32* %7, align 4
  %31 = sitofp i32 %30 to double
  %32 = load i32, i32* %6, align 4
  %33 = sext i32 %32 to i64
  %34 = getelementptr inbounds [100 x i32], [100 x i32]* %5, i64 0, i64 %33
  %35 = load i32, i32* %34, align 4
  %36 = sitofp i32 %35 to double
  %37 = load i32, i32* %4, align 4
  %38 = sub nsw i32 %37, 1
  %39 = load i32, i32* %6, align 4
  %40 = sub nsw i32 %38, %39
  %41 = sitofp i32 %40 to double
  %42 = call double @pow(double 1.000000e+01, double %41) #3
  %43 = fmul double %36, %42
  %44 = fadd double %31, %43
  %45 = fptosi double %44 to i32
  store i32 %45, i32* %7, align 4
  br label %46

46:                                               ; preds = %29
  %47 = load i32, i32* %6, align 4
  %48 = add nsw i32 %47, 1
  store i32 %48, i32* %6, align 4
  br label %25

49:                                               ; preds = %25
  %50 = load i32, i32* %7, align 4
  store i32 %50, i32* %2, align 4
  br label %51

51:                                               ; preds = %49, %10
  %52 = load i32, i32* %2, align 4
  ret i32 %52
}

; Function Attrs: nounwind
declare dso_local double @pow(double, double) #1

; Function Attrs: noinline nounwind uwtable
define dso_local i32 @main() #0 {
  %1 = alloca i32, align 4
  %2 = alloca i32, align 4
  %3 = alloca [6 x i32], align 16
  store i32 0, i32* %1, align 4
  store i32 0, i32* %2, align 4
  br label %4

4:                                                ; preds = %38, %0
  %5 = load i32, i32* %2, align 4
  %6 = icmp slt i32 %5, 6
  br i1 %6, label %7, label %41

7:                                                ; preds = %4
  %8 = load i32, i32* %2, align 4
  %9 = sext i32 %8 to i64
  %10 = getelementptr inbounds [6 x i32], [6 x i32]* %3, i64 0, i64 %9
  %11 = call i32 (i8*, ...) @__isoc99_scanf(i8* getelementptr inbounds ([3 x i8], [3 x i8]* @.str, i64 0, i64 0), i32* %10)
  %12 = load i32, i32* %2, align 4
  %13 = sext i32 %12 to i64
  %14 = getelementptr inbounds [6 x i32], [6 x i32]* %3, i64 0, i64 %13
  %15 = load i32, i32* %14, align 4
  %16 = icmp sge i32 %15, 0
  br i1 %16, label %17, label %26

17:                                               ; preds = %7
  %18 = load i32, i32* %2, align 4
  %19 = sext i32 %18 to i64
  %20 = getelementptr inbounds [6 x i32], [6 x i32]* %3, i64 0, i64 %19
  %21 = load i32, i32* %20, align 4
  %22 = call i32 @reverse(i32 %21)
  %23 = load i32, i32* %2, align 4
  %24 = sext i32 %23 to i64
  %25 = getelementptr inbounds [6 x i32], [6 x i32]* %3, i64 0, i64 %24
  store i32 %22, i32* %25, align 4
  br label %37

26:                                               ; preds = %7
  %27 = load i32, i32* %2, align 4
  %28 = sext i32 %27 to i64
  %29 = getelementptr inbounds [6 x i32], [6 x i32]* %3, i64 0, i64 %28
  %30 = load i32, i32* %29, align 4
  %31 = sub nsw i32 0, %30
  %32 = call i32 @reverse(i32 %31)
  %33 = sub nsw i32 0, %32
  %34 = load i32, i32* %2, align 4
  %35 = sext i32 %34 to i64
  %36 = getelementptr inbounds [6 x i32], [6 x i32]* %3, i64 0, i64 %35
  store i32 %33, i32* %36, align 4
  br label %37

37:                                               ; preds = %26, %17
  br label %38

38:                                               ; preds = %37
  %39 = load i32, i32* %2, align 4
  %40 = add nsw i32 %39, 1
  store i32 %40, i32* %2, align 4
  br label %4

41:                                               ; preds = %4
  store i32 0, i32* %2, align 4
  br label %42

42:                                               ; preds = %51, %41
  %43 = load i32, i32* %2, align 4
  %44 = icmp slt i32 %43, 6
  br i1 %44, label %45, label %54

45:                                               ; preds = %42
  %46 = load i32, i32* %2, align 4
  %47 = sext i32 %46 to i64
  %48 = getelementptr inbounds [6 x i32], [6 x i32]* %3, i64 0, i64 %47
  %49 = load i32, i32* %48, align 4
  %50 = call i32 (i8*, ...) @printf(i8* getelementptr inbounds ([4 x i8], [4 x i8]* @.str.1, i64 0, i64 0), i32 %49)
  br label %51

51:                                               ; preds = %45
  %52 = load i32, i32* %2, align 4
  %53 = add nsw i32 %52, 1
  store i32 %53, i32* %2, align 4
  br label %42

54:                                               ; preds = %42
  ret i32 0
}

declare dso_local i32 @__isoc99_scanf(i8*, ...) #2

declare dso_local i32 @printf(i8*, ...) #2


!llvm.module.flags = !{!0}
!llvm.ident = !{!1}

!0 = !{i32 1, !"wchar_size", i32 4}
!1 = !{!"clang version 10.0.0-4ubuntu1 "}
